target datalayout = "e-m:e-p270:32:32-p271:32:32-p272:64:64-i64:64-i128:128-f80:128-n8:16:32:64-S128"
target triple = "x86_64-pc-linux-gnu"

%struct.StringInfoData = type { ptr, i32, i32, i32 }

; Function Attrs: nounwind uwtable
define dso_local void @pq_begintypsend(ptr noundef %0) #0 {
  %2 = alloca ptr, align 8
  store ptr %0, ptr %2, align 8
  %3 = load ptr, ptr %2, align 8
  call void @initStringInfo(ptr noundef %3)
  %4 = load ptr, ptr %2, align 8
  %5 = getelementptr inbounds nuw %struct.StringInfoData, ptr %4, i32 0, i32 1
  %6 = load i32, ptr %5, align 8
  %7 = add i32 %6, 1
  %8 = load ptr, ptr %2, align 8
  %9 = getelementptr inbounds nuw %struct.StringInfoData, ptr %8, i32 0, i32 2
  %10 = load i32, ptr %9, align 4
  %11 = icmp sge i32 %7, %10
  br i1 %11, label %12, label %14

12:                                               ; preds = %1
  %13 = load ptr, ptr %2, align 8
  call void @appendStringInfoChar(ptr noundef %13, i8 noundef signext 0)
  br label %32

14:                                               ; preds = %1
  %15 = load ptr, ptr %2, align 8
  %16 = getelementptr inbounds nuw %struct.StringInfoData, ptr %15, i32 0, i32 0
  %17 = load ptr, ptr %16, align 8
  %18 = load ptr, ptr %2, align 8
  %19 = getelementptr inbounds nuw %struct.StringInfoData, ptr %18, i32 0, i32 1
  %20 = load i32, ptr %19, align 8
  %21 = sext i32 %20 to i64
  %22 = getelementptr inbounds i8, ptr %17, i64 %21
  store i8 0, ptr %22, align 1
  %23 = load ptr, ptr %2, align 8
  %24 = getelementptr inbounds nuw %struct.StringInfoData, ptr %23, i32 0, i32 0
  %25 = load ptr, ptr %24, align 8
  %26 = load ptr, ptr %2, align 8
  %27 = getelementptr inbounds nuw %struct.StringInfoData, ptr %26, i32 0, i32 1
  %28 = load i32, ptr %27, align 8
  %29 = add i32 %28, 1
  store i32 %29, ptr %27, align 8
  %30 = sext i32 %29 to i64
  %31 = getelementptr inbounds i8, ptr %25, i64 %30
  store i8 0, ptr %31, align 1
  br label %32

32:                                               ; preds = %14, %12
  %33 = load ptr, ptr %2, align 8
  %34 = getelementptr inbounds nuw %struct.StringInfoData, ptr %33, i32 0, i32 1
  %35 = load i32, ptr %34, align 8
  %36 = add i32 %35, 1
  %37 = load ptr, ptr %2, align 8
  %38 = getelementptr inbounds nuw %struct.StringInfoData, ptr %37, i32 0, i32 2
  %39 = load i32, ptr %38, align 4
  %40 = icmp sge i32 %36, %39
  br i1 %40, label %41, label %43

41:                                               ; preds = %32
  %42 = load ptr, ptr %2, align 8
  call void @appendStringInfoChar(ptr noundef %42, i8 noundef signext 0)
  br label %61

43:                                               ; preds = %32
  %44 = load ptr, ptr %2, align 8
  %45 = getelementptr inbounds nuw %struct.StringInfoData, ptr %44, i32 0, i32 0
  %46 = load ptr, ptr %45, align 8
  %47 = load ptr, ptr %2, align 8
  %48 = getelementptr inbounds nuw %struct.StringInfoData, ptr %47, i32 0, i32 1
  %49 = load i32, ptr %48, align 8
  %50 = sext i32 %49 to i64
  %51 = getelementptr inbounds i8, ptr %46, i64 %50
  store i8 0, ptr %51, align 1
  %52 = load ptr, ptr %2, align 8
  %53 = getelementptr inbounds nuw %struct.StringInfoData, ptr %52, i32 0, i32 0
  %54 = load ptr, ptr %53, align 8
  %55 = load ptr, ptr %2, align 8
  %56 = getelementptr inbounds nuw %struct.StringInfoData, ptr %55, i32 0, i32 1
  %57 = load i32, ptr %56, align 8
  %58 = add i32 %57, 1
  store i32 %58, ptr %56, align 8
  %59 = sext i32 %58 to i64
  %60 = getelementptr inbounds i8, ptr %54, i64 %59
  store i8 0, ptr %60, align 1
  br label %61

61:                                               ; preds = %43, %41
  %62 = load ptr, ptr %2, align 8
  %63 = getelementptr inbounds nuw %struct.StringInfoData, ptr %62, i32 0, i32 1
  %64 = load i32, ptr %63, align 8
  %65 = add i32 %64, 1
  %66 = load ptr, ptr %2, align 8
  %67 = getelementptr inbounds nuw %struct.StringInfoData, ptr %66, i32 0, i32 2
  %68 = load i32, ptr %67, align 4
  %69 = icmp sge i32 %65, %68
  br i1 %69, label %70, label %72

70:                                               ; preds = %61
  %71 = load ptr, ptr %2, align 8
  call void @appendStringInfoChar(ptr noundef %71, i8 noundef signext 0)
  br label %90

72:                                               ; preds = %61
  %73 = load ptr, ptr %2, align 8
  %74 = getelementptr inbounds nuw %struct.StringInfoData, ptr %73, i32 0, i32 0
  %75 = load ptr, ptr %74, align 8
  %76 = load ptr, ptr %2, align 8
  %77 = getelementptr inbounds nuw %struct.StringInfoData, ptr %76, i32 0, i32 1
  %78 = load i32, ptr %77, align 8
  %79 = sext i32 %78 to i64
  %80 = getelementptr inbounds i8, ptr %75, i64 %79
  store i8 0, ptr %80, align 1
  %81 = load ptr, ptr %2, align 8
  %82 = getelementptr inbounds nuw %struct.StringInfoData, ptr %81, i32 0, i32 0
  %83 = load ptr, ptr %82, align 8
  %84 = load ptr, ptr %2, align 8
  %85 = getelementptr inbounds nuw %struct.StringInfoData, ptr %84, i32 0, i32 1
  %86 = load i32, ptr %85, align 8
  %87 = add i32 %86, 1
  store i32 %87, ptr %85, align 8
  %88 = sext i32 %87 to i64
  %89 = getelementptr inbounds i8, ptr %83, i64 %88
  store i8 0, ptr %89, align 1
  br label %90

90:                                               ; preds = %72, %70
  %91 = load ptr, ptr %2, align 8
  %92 = getelementptr inbounds nuw %struct.StringInfoData, ptr %91, i32 0, i32 1
  %93 = load i32, ptr %92, align 8
  %94 = add i32 %93, 1
  %95 = load ptr, ptr %2, align 8
  %96 = getelementptr inbounds nuw %struct.StringInfoData, ptr %95, i32 0, i32 2
  %97 = load i32, ptr %96, align 4
  %98 = icmp sge i32 %94, %97
  br i1 %98, label %99, label %101

99:                                               ; preds = %90
  %100 = load ptr, ptr %2, align 8
  call void @appendStringInfoChar(ptr noundef %100, i8 noundef signext 0)
  br label %119

101:                                              ; preds = %90
  %102 = load ptr, ptr %2, align 8
  %103 = getelementptr inbounds nuw %struct.StringInfoData, ptr %102, i32 0, i32 0
  %104 = load ptr, ptr %103, align 8
  %105 = load ptr, ptr %2, align 8
  %106 = getelementptr inbounds nuw %struct.StringInfoData, ptr %105, i32 0, i32 1
  %107 = load i32, ptr %106, align 8
  %108 = sext i32 %107 to i64
  %109 = getelementptr inbounds i8, ptr %104, i64 %108
  store i8 0, ptr %109, align 1
  %110 = load ptr, ptr %2, align 8
  %111 = getelementptr inbounds nuw %struct.StringInfoData, ptr %110, i32 0, i32 0
  %112 = load ptr, ptr %111, align 8
  %113 = load ptr, ptr %2, align 8
  %114 = getelementptr inbounds nuw %struct.StringInfoData, ptr %113, i32 0, i32 1
  %115 = load i32, ptr %114, align 8
  %116 = add i32 %115, 1
  store i32 %116, ptr %114, align 8
  %117 = sext i32 %116 to i64
  %118 = getelementptr inbounds i8, ptr %112, i64 %117
  store i8 0, ptr %118, align 1
  br label %119

119:                                              ; preds = %101, %99
  ret void
}