; Function Attrs: nounwind uwtable
define dso_local void @pq_begintypsend(ptr noundef %0) local_unnamed_addr #0 {
  tail call void @initStringInfo(ptr noundef %0) #9
  %2 = getelementptr inbounds nuw i8, ptr %0, i64 8
  %3 = load i32, ptr %2, align 8
  %4 = add i32 %3, 1
  %5 = getelementptr inbounds nuw i8, ptr %0, i64 12
  %6 = load i32, ptr %5, align 4
  %.not = icmp slt i32 %4, %6
  br i1 %.not, label %8, label %7

7:                                                ; preds = %1
  tail call void @appendStringInfoChar(ptr noundef nonnull %0, i8 noundef signext 0) #9
  br label %17

8:                                                ; preds = %1
  %9 = load ptr, ptr %0, align 8
  %10 = sext i32 %3 to i64
  %11 = getelementptr inbounds i8, ptr %9, i64 %10
  store i8 0, ptr %11, align 1
  %12 = load ptr, ptr %0, align 8
  %13 = load i32, ptr %2, align 8
  %14 = add i32 %13, 1
  store i32 %14, ptr %2, align 8
  %15 = sext i32 %14 to i64
  %16 = getelementptr inbounds i8, ptr %12, i64 %15
  store i8 0, ptr %16, align 1
  br label %17

17:                                               ; preds = %8, %7
  %18 = load i32, ptr %2, align 8
  %19 = add i32 %18, 1
  %20 = load i32, ptr %5, align 4
  %.not29 = icmp slt i32 %19, %20
  br i1 %.not29, label %22, label %21

21:                                               ; preds = %17
  tail call void @appendStringInfoChar(ptr noundef nonnull %0, i8 noundef signext 0) #9
  br label %31

22:                                               ; preds = %17
  %23 = load ptr, ptr %0, align 8
  %24 = sext i32 %18 to i64
  %25 = getelementptr inbounds i8, ptr %23, i64 %24
  store i8 0, ptr %25, align 1
  %26 = load ptr, ptr %0, align 8
  %27 = load i32, ptr %2, align 8
  %28 = add i32 %27, 1
  store i32 %28, ptr %2, align 8
  %29 = sext i32 %28 to i64
  %30 = getelementptr inbounds i8, ptr %26, i64 %29
  store i8 0, ptr %30, align 1
  br label %31

31:                                               ; preds = %22, %21
  %32 = load i32, ptr %2, align 8
  %33 = add i32 %32, 1
  %34 = load i32, ptr %5, align 4
  %.not30 = icmp slt i32 %33, %34
  br i1 %.not30, label %36, label %35

35:                                               ; preds = %31
  tail call void @appendStringInfoChar(ptr noundef nonnull %0, i8 noundef signext 0) #9
  br label %45

36:                                               ; preds = %31
  %37 = load ptr, ptr %0, align 8
  %38 = sext i32 %32 to i64
  %39 = getelementptr inbounds i8, ptr %37, i64 %38
  store i8 0, ptr %39, align 1
  %40 = load ptr, ptr %0, align 8
  %41 = load i32, ptr %2, align 8
  %42 = add i32 %41, 1
  store i32 %42, ptr %2, align 8
  %43 = sext i32 %42 to i64
  %44 = getelementptr inbounds i8, ptr %40, i64 %43
  store i8 0, ptr %44, align 1
  br label %45

45:                                               ; preds = %36, %35
  %46 = load i32, ptr %2, align 8
  %47 = add i32 %46, 1
  %48 = load i32, ptr %5, align 4
  %.not31 = icmp slt i32 %47, %48
  br i1 %.not31, label %50, label %49

49:                                               ; preds = %45
  tail call void @appendStringInfoChar(ptr noundef nonnull %0, i8 noundef signext 0) #9
  br label %59

50:                                               ; preds = %45
  %51 = load ptr, ptr %0, align 8
  %52 = sext i32 %46 to i64
  %53 = getelementptr inbounds i8, ptr %51, i64 %52
  store i8 0, ptr %53, align 1
  %54 = load ptr, ptr %0, align 8
  %55 = load i32, ptr %2, align 8
  %56 = add i32 %55, 1
  store i32 %56, ptr %2, align 8
  %57 = sext i32 %56 to i64
  %58 = getelementptr inbounds i8, ptr %54, i64 %57
  store i8 0, ptr %58, align 1
  br label %59

59:                                               ; preds = %50, %49
  ret void
}